target datalayout = "e-m:e-p270:32:32-p271:32:32-p272:64:64-i64:64-i128:128-f80:128-n8:16:32:64-S128"
target triple = "x86_64-pc-linux-gnu"

%struct.Scheduler = type { ptr, ptr, i32, ptr, i32, i32, %union.pthread_mutex_t, i32, i32, %union.pthread_mutex_t, %union.pthread_cond_t, ptr, i32, ptr, i32, ptr, i32, ptr, i32, ptr, i32, i32, i32, %union.pthread_mutex_t, i64 }
%union.pthread_cond_t = type { %struct.__pthread_cond_s }
%struct.__pthread_cond_s = type { %union.__atomic_wide_counter, %union.__atomic_wide_counter, [2 x i32], [2 x i32], i32, i32, [2 x i32] }
%union.__atomic_wide_counter = type { i64 }
%union.pthread_mutex_t = type { %struct.__pthread_mutex_s }
%struct.__pthread_mutex_s = type { i32, i32, i32, i32, i32, i16, i16, %struct.__pthread_internal_list }
%struct.__pthread_internal_list = type { ptr, ptr }

@scheduler_class = internal constant { ptr, ptr, ptr, i32, i32, i32, i32, ptr, ptr, ptr, ptr, i32, [4 x i8] } { ptr @.str.32, ptr null, ptr null, i32 3932772, i32 0, i32 0, i32 0, ptr null, ptr null, ptr null, ptr null, i32 0, [4 x i8] zeroinitializer }, align 8

; Function Attrs: nounwind uwtable
define ptr @sch_alloc() #0 {
  %1 = alloca ptr, align 8
  %2 = alloca ptr, align 8
  %3 = alloca i32, align 4
  %4 = alloca i32, align 4
  call void @llvm.lifetime.start.p0(i64 8, ptr %2) #9
  call void @llvm.lifetime.start.p0(i64 4, ptr %3) #9
  %5 = call noalias ptr @av_mallocz(i64 noundef 312)
  store ptr %5, ptr %2, align 8, !tbaa !10
  %6 = load ptr, ptr %2, align 8, !tbaa !10
  %7 = icmp ne ptr %6, null
  br i1 %7, label %9, label %8

8:                                                ; preds = %0
  store ptr null, ptr %1, align 8
  store i32 1, ptr %4, align 4
  br label %44

9:                                                ; preds = %0
  %10 = load ptr, ptr %2, align 8, !tbaa !10
  %11 = getelementptr inbounds nuw %struct.Scheduler, ptr %10, i32 0, i32 0
  store ptr @scheduler_class, ptr %11, align 8, !tbaa !93
  %12 = load ptr, ptr %2, align 8, !tbaa !10
  %13 = getelementptr inbounds nuw %struct.Scheduler, ptr %12, i32 0, i32 20
  store i32 1, ptr %13, align 8, !tbaa !94
  %14 = load ptr, ptr %2, align 8, !tbaa !10
  %15 = getelementptr inbounds nuw %struct.Scheduler, ptr %14, i32 0, i32 23
  %16 = call i32 @pthread_mutex_init(ptr noundef %15, ptr noundef null) #9
  store i32 %16, ptr %3, align 4, !tbaa !12
  %17 = load i32, ptr %3, align 4, !tbaa !12
  %18 = icmp ne i32 %17, 0
  br i1 %18, label %19, label %20

19:                                               ; preds = %9
  br label %43

20:                                               ; preds = %9
  %21 = load ptr, ptr %2, align 8, !tbaa !10
  %22 = getelementptr inbounds nuw %struct.Scheduler, ptr %21, i32 0, i32 6
  %23 = call i32 @pthread_mutex_init(ptr noundef %22, ptr noundef null) #9
  store i32 %23, ptr %3, align 4, !tbaa !12
  %24 = load i32, ptr %3, align 4, !tbaa !12
  %25 = icmp ne i32 %24, 0
  br i1 %25, label %26, label %27

26:                                               ; preds = %20
  br label %43

27:                                               ; preds = %20
  %28 = load ptr, ptr %2, align 8, !tbaa !10
  %29 = getelementptr inbounds nuw %struct.Scheduler, ptr %28, i32 0, i32 9
  %30 = call i32 @pthread_mutex_init(ptr noundef %29, ptr noundef null) #9
  store i32 %30, ptr %3, align 4, !tbaa !12
  %31 = load i32, ptr %3, align 4, !tbaa !12
  %32 = icmp ne i32 %31, 0
  br i1 %32, label %33, label %34

33:                                               ; preds = %27
  br label %43

34:                                               ; preds = %27
  %35 = load ptr, ptr %2, align 8, !tbaa !10
  %36 = getelementptr inbounds nuw %struct.Scheduler, ptr %35, i32 0, i32 10
  %37 = call i32 @pthread_cond_init(ptr noundef %36, ptr noundef null) #9
  store i32 %37, ptr %3, align 4, !tbaa !12
  %38 = load i32, ptr %3, align 4, !tbaa !12
  %39 = icmp ne i32 %38, 0
  br i1 %39, label %40, label %41

40:                                               ; preds = %34
  br label %43

41:                                               ; preds = %34
  %42 = load ptr, ptr %2, align 8, !tbaa !10
  store ptr %42, ptr %1, align 8
  store i32 1, ptr %4, align 4
  br label %44

43:                                               ; preds = %40, %33, %26, %19
  call void @sch_free(ptr noundef %2)
  store ptr null, ptr %1, align 8
  store i32 1, ptr %4, align 4
  br label %44

44:                                               ; preds = %43, %41, %8
  call void @llvm.lifetime.end.p0(i64 4, ptr %3) #9
  call void @llvm.lifetime.end.p0(i64 8, ptr %2) #9
  %45 = load ptr, ptr %1, align 8
  ret ptr %45
}