; Function Attrs: nounwind uwtable
define ptr @sch_alloc() local_unnamed_addr #0 {
  %1 = alloca ptr, align 8
  call void @llvm.lifetime.start.p0(i64 8, ptr nonnull %1) #9
  %2 = tail call noalias ptr @av_mallocz(i64 noundef 312) #9
  store ptr %2, ptr %1, align 8, !tbaa !4
  %.not = icmp eq ptr %2, null
  br i1 %.not, label %17, label %3

3:                                                ; preds = %0
  store ptr @scheduler_class, ptr %2, align 8, !tbaa !83
  %4 = getelementptr inbounds nuw i8, ptr %2, i64 248
  store i32 1, ptr %4, align 8, !tbaa !84
  %5 = getelementptr inbounds nuw i8, ptr %2, i64 264
  %6 = tail call i32 @pthread_mutex_init(ptr noundef nonnull %5, ptr noundef null) #9
  %.not5 = icmp eq i32 %6, 0
  br i1 %.not5, label %7, label %16

7:                                                ; preds = %3
  %8 = getelementptr inbounds nuw i8, ptr %2, i64 40
  %9 = tail call i32 @pthread_mutex_init(ptr noundef nonnull %8, ptr noundef null) #9
  %.not6 = icmp eq i32 %9, 0
  br i1 %.not6, label %10, label %16

10:                                               ; preds = %7
  %11 = getelementptr inbounds nuw i8, ptr %2, i64 88
  %12 = tail call i32 @pthread_mutex_init(ptr noundef nonnull %11, ptr noundef null) #9
  %.not7 = icmp eq i32 %12, 0
  br i1 %.not7, label %13, label %16

13:                                               ; preds = %10
  %14 = getelementptr inbounds nuw i8, ptr %2, i64 128
  %15 = tail call i32 @pthread_cond_init(ptr noundef nonnull %14, ptr noundef null) #9
  %.not8 = icmp eq i32 %15, 0
  br i1 %.not8, label %17, label %16

16:                                               ; preds = %13, %10, %7, %3
  call void @sch_free(ptr noundef nonnull %1)
  br label %17

17:                                               ; preds = %13, %0, %16
  %.0 = phi ptr [ null, %16 ], [ null, %0 ], [ %2, %13 ]
  call void @llvm.lifetime.end.p0(i64 8, ptr nonnull %1) #9
  ret ptr %.0
}